; Function Attrs: mustprogress nofree nounwind uwtable
define void @_ZN6marisa8grimoire2io6WriterD2Ev(ptr noundef nonnull readonly align 8 captures(none) dereferenceable(25) %0) unnamed_addr #4 align 2 personality ptr @__gxx_personality_v0 {
  %2 = getelementptr inbounds nuw i8, ptr %0, i64 24
  %3 = load i8, ptr %2, align 8, !tbaa !14, !range !15, !noundef !16
  %4 = trunc nuw i8 %3 to i1
  br i1 %4, label %5, label %8

5:                                                ; preds = %1
  %6 = load ptr, ptr %0, align 8, !tbaa !3
  %7 = tail call i32 @fclose(ptr noundef %6)
  br label %8

8:                                                ; preds = %5, %1
  ret void
}